target datalayout = "e-m:e-p270:32:32-p271:32:32-p272:64:64-i64:64-i128:128-f80:128-n8:16:32:64-S128"
target triple = "x86_64-pc-linux-gnu"

%struct.A_Expr = type { i32, i32, ptr, ptr, ptr, i32 }
%struct.Node = type { i32 }

; Function Attrs: inlinehint nounwind uwtable
define internal ptr @newNode(i64 noundef %0, i32 noundef %1) #2 {
  %3 = alloca i64, align 8
  %4 = alloca i32, align 4
  %5 = alloca ptr, align 8
  store i64 %0, ptr %3, align 8
  store i32 %1, ptr %4, align 4
  call void @llvm.lifetime.start.p0(i64 8, ptr %5) #6
  %6 = load i64, ptr %3, align 8
  %7 = call ptr @palloc0(i64 noundef %6)
  store ptr %7, ptr %5, align 8
  %8 = load i32, ptr %4, align 4
  %9 = load ptr, ptr %5, align 8
  %10 = getelementptr inbounds nuw %struct.Node, ptr %9, i32 0, i32 0
  store i32 %8, ptr %10, align 4
  %11 = load ptr, ptr %5, align 8
  call void @llvm.lifetime.end.p0(i64 8, ptr %5) #6
  ret ptr %11
}

; Function Attrs: nounwind uwtable
define dso_local ptr @makeA_Expr(i32 noundef %0, ptr noundef %1, ptr noundef %2, ptr noundef %3, i32 noundef %4) #0 {
  %6 = alloca i32, align 4
  %7 = alloca ptr, align 8
  %8 = alloca ptr, align 8
  %9 = alloca ptr, align 8
  %10 = alloca i32, align 4
  %11 = alloca ptr, align 8
  store i32 %0, ptr %6, align 4
  store ptr %1, ptr %7, align 8
  store ptr %2, ptr %8, align 8
  store ptr %3, ptr %9, align 8
  store i32 %4, ptr %10, align 4
  call void @llvm.lifetime.start.p0(i64 8, ptr %11) #6
  %12 = call ptr @newNode(i64 noundef 40, i32 noundef 71)
  store ptr %12, ptr %11, align 8
  %13 = load i32, ptr %6, align 4
  %14 = load ptr, ptr %11, align 8
  %15 = getelementptr inbounds nuw %struct.A_Expr, ptr %14, i32 0, i32 1
  store i32 %13, ptr %15, align 4
  %16 = load ptr, ptr %7, align 8
  %17 = load ptr, ptr %11, align 8
  %18 = getelementptr inbounds nuw %struct.A_Expr, ptr %17, i32 0, i32 2
  store ptr %16, ptr %18, align 8
  %19 = load ptr, ptr %8, align 8
  %20 = load ptr, ptr %11, align 8
  %21 = getelementptr inbounds nuw %struct.A_Expr, ptr %20, i32 0, i32 3
  store ptr %19, ptr %21, align 8
  %22 = load ptr, ptr %9, align 8
  %23 = load ptr, ptr %11, align 8
  %24 = getelementptr inbounds nuw %struct.A_Expr, ptr %23, i32 0, i32 4
  store ptr %22, ptr %24, align 8
  %25 = load i32, ptr %10, align 4
  %26 = load ptr, ptr %11, align 8
  %27 = getelementptr inbounds nuw %struct.A_Expr, ptr %26, i32 0, i32 5
  store i32 %25, ptr %27, align 8
  %28 = load ptr, ptr %11, align 8
  call void @llvm.lifetime.end.p0(i64 8, ptr %11) #6
  ret ptr %28
}